target datalayout = "e-m:e-p270:32:32-p271:32:32-p272:64:64-i64:64-i128:128-f80:128-n8:16:32:64-S128"
target triple = "x86_64-pc-linux-gnu"

%class.cmList = type { %"class.std::vector" }
%"class.std::vector" = type { %"struct.std::_Vector_base" }
%"struct.std::_Vector_base" = type { %"struct.std::_Vector_base<std::__cxx11::basic_string<char>, std::allocator<std::__cxx11::basic_string<char>>>::_Vector_impl" }
%"struct.std::_Vector_base<std::__cxx11::basic_string<char>, std::allocator<std::__cxx11::basic_string<char>>>::_Vector_impl" = type { %"struct.std::_Vector_base<std::__cxx11::basic_string<char>, std::allocator<std::__cxx11::basic_string<char>>>::_Vector_impl_data" }
%"struct.std::_Vector_base<std::__cxx11::basic_string<char>, std::allocator<std::__cxx11::basic_string<char>>>::_Vector_impl_data" = type { ptr, ptr, ptr }
%"class.std::__cxx11::basic_string" = type { %"struct.std::__cxx11::basic_string<char>::_Alloc_hider", i64, %union.anon.3 }
%"struct.std::__cxx11::basic_string<char>::_Alloc_hider" = type { ptr }
%union.anon.3 = type { i64, [8 x i8] }
%"class.__gnu_cxx::__normal_iterator" = type { ptr }

@_ZTISt12out_of_range = external constant ptr
@.str.9 = private unnamed_addr constant [8 x i8] c"index: \00", align 1
@.str.10 = private unnamed_addr constant [21 x i8] c" out of range (0, 0)\00", align 1
@.str.11 = private unnamed_addr constant [17 x i8] c" out of range (-\00", align 1
@.str.12 = private unnamed_addr constant [3 x i8] c", \00", align 1
@.str.13 = private unnamed_addr constant [2 x i8] c")\00", align 1

; Function Attrs: mustprogress nounwind uwtable
define linkonce_odr dso_local noundef nonnull align 8 dereferenceable(8) ptr @_ZNK9__gnu_cxx17__normal_iteratorIPKNSt7__cxx1112basic_stringIcSt11char_traitsIcESaIcEEESt6vectorIS6_SaIS6_EEE4baseEv(ptr noundef nonnull align 8 dereferenceable(8) %0) #5 comdat align 2 {
  %2 = alloca ptr, align 8
  store ptr %0, ptr %2, align 8
  %3 = load ptr, ptr %2, align 8
  %4 = getelementptr inbounds %"class.__gnu_cxx::__normal_iterator", ptr %3, i32 0, i32 0
  ret ptr %4
}

; Function Attrs: mustprogress nounwind uwtable
define linkonce_odr dso_local void @_ZN9__gnu_cxx17__normal_iteratorIPKNSt7__cxx1112basic_stringIcSt11char_traitsIcESaIcEEESt6vectorIS6_SaIS6_EEEC2ERKS8_(ptr noundef nonnull align 8 dereferenceable(8) %0, ptr noundef nonnull align 8 dereferenceable(8) %1) unnamed_addr #5 comdat align 2 {
  %3 = alloca ptr, align 8
  %4 = alloca ptr, align 8
  store ptr %0, ptr %3, align 8
  store ptr %1, ptr %4, align 8
  %5 = load ptr, ptr %3, align 8
  %6 = getelementptr inbounds %"class.__gnu_cxx::__normal_iterator", ptr %5, i32 0, i32 0
  %7 = load ptr, ptr %4, align 8
  %8 = load ptr, ptr %7, align 8
  store ptr %8, ptr %6, align 8
  ret void
}

; Function Attrs: mustprogress nounwind uwtable
define linkonce_odr dso_local noundef zeroext i1 @_ZN9__gnu_cxxeqIPKNSt7__cxx1112basic_stringIcSt11char_traitsIcESaIcEEESt6vectorIS6_SaIS6_EEEEbRKNS_17__normal_iteratorIT_T0_EESH_(ptr noundef nonnull align 8 dereferenceable(8) %0, ptr noundef nonnull align 8 dereferenceable(8) %1) #5 comdat {
  %3 = alloca ptr, align 8
  %4 = alloca ptr, align 8
  store ptr %0, ptr %3, align 8
  store ptr %1, ptr %4, align 8
  %5 = load ptr, ptr %3, align 8
  %6 = call noundef nonnull align 8 dereferenceable(8) ptr @_ZNK9__gnu_cxx17__normal_iteratorIPKNSt7__cxx1112basic_stringIcSt11char_traitsIcESaIcEEESt6vectorIS6_SaIS6_EEE4baseEv(ptr noundef nonnull align 8 dereferenceable(8) %5) #3
  %7 = load ptr, ptr %6, align 8
  %8 = load ptr, ptr %4, align 8
  %9 = call noundef nonnull align 8 dereferenceable(8) ptr @_ZNK9__gnu_cxx17__normal_iteratorIPKNSt7__cxx1112basic_stringIcSt11char_traitsIcESaIcEEESt6vectorIS6_SaIS6_EEE4baseEv(ptr noundef nonnull align 8 dereferenceable(8) %8) #3
  %10 = load ptr, ptr %9, align 8
  %11 = icmp eq ptr %7, %10
  ret i1 %11
}

; Function Attrs: mustprogress nounwind uwtable
define linkonce_odr dso_local ptr @_ZNKSt6vectorINSt7__cxx1112basic_stringIcSt11char_traitsIcESaIcEEESaIS5_EE3endEv(ptr noundef nonnull align 8 dereferenceable(24) %0) #5 comdat align 2 {
  %2 = alloca %"class.__gnu_cxx::__normal_iterator", align 8
  %3 = alloca ptr, align 8
  store ptr %0, ptr %3, align 8
  %4 = load ptr, ptr %3, align 8
  %5 = getelementptr inbounds %"struct.std::_Vector_base", ptr %4, i32 0, i32 0
  %6 = getelementptr inbounds %"struct.std::_Vector_base<std::__cxx11::basic_string<char>, std::allocator<std::__cxx11::basic_string<char>>>::_Vector_impl_data", ptr %5, i32 0, i32 1
  call void @_ZN9__gnu_cxx17__normal_iteratorIPKNSt7__cxx1112basic_stringIcSt11char_traitsIcESaIcEEESt6vectorIS6_SaIS6_EEEC2ERKS8_(ptr noundef nonnull align 8 dereferenceable(8) %2, ptr noundef nonnull align 8 dereferenceable(8) %6) #3
  %7 = getelementptr inbounds %"class.__gnu_cxx::__normal_iterator", ptr %2, i32 0, i32 0
  %8 = load ptr, ptr %7, align 8
  ret ptr %8
}

; Function Attrs: mustprogress nounwind uwtable
define linkonce_odr dso_local ptr @_ZNKSt6vectorINSt7__cxx1112basic_stringIcSt11char_traitsIcESaIcEEESaIS5_EE5beginEv(ptr noundef nonnull align 8 dereferenceable(24) %0) #5 comdat align 2 {
  %2 = alloca %"class.__gnu_cxx::__normal_iterator", align 8
  %3 = alloca ptr, align 8
  store ptr %0, ptr %3, align 8
  %4 = load ptr, ptr %3, align 8
  %5 = getelementptr inbounds %"struct.std::_Vector_base", ptr %4, i32 0, i32 0
  %6 = getelementptr inbounds %"struct.std::_Vector_base<std::__cxx11::basic_string<char>, std::allocator<std::__cxx11::basic_string<char>>>::_Vector_impl_data", ptr %5, i32 0, i32 0
  call void @_ZN9__gnu_cxx17__normal_iteratorIPKNSt7__cxx1112basic_stringIcSt11char_traitsIcESaIcEEESt6vectorIS6_SaIS6_EEEC2ERKS8_(ptr noundef nonnull align 8 dereferenceable(8) %2, ptr noundef nonnull align 8 dereferenceable(8) %6) #3
  %7 = getelementptr inbounds %"class.__gnu_cxx::__normal_iterator", ptr %2, i32 0, i32 0
  %8 = load ptr, ptr %7, align 8
  ret ptr %8
}

; Function Attrs: mustprogress nounwind uwtable
define linkonce_odr dso_local noundef i64 @_ZNKSt6vectorINSt7__cxx1112basic_stringIcSt11char_traitsIcESaIcEEESaIS5_EE4sizeEv(ptr noundef nonnull align 8 dereferenceable(24) %0) #5 comdat align 2 {
  %2 = alloca ptr, align 8
  store ptr %0, ptr %2, align 8
  %3 = load ptr, ptr %2, align 8
  %4 = getelementptr inbounds %"struct.std::_Vector_base", ptr %3, i32 0, i32 0
  %5 = getelementptr inbounds %"struct.std::_Vector_base<std::__cxx11::basic_string<char>, std::allocator<std::__cxx11::basic_string<char>>>::_Vector_impl_data", ptr %4, i32 0, i32 1
  %6 = load ptr, ptr %5, align 8
  %7 = getelementptr inbounds %"struct.std::_Vector_base", ptr %3, i32 0, i32 0
  %8 = getelementptr inbounds %"struct.std::_Vector_base<std::__cxx11::basic_string<char>, std::allocator<std::__cxx11::basic_string<char>>>::_Vector_impl_data", ptr %7, i32 0, i32 0
  %9 = load ptr, ptr %8, align 8
  %10 = ptrtoint ptr %6 to i64
  %11 = ptrtoint ptr %9 to i64
  %12 = sub i64 %10, %11
  %13 = sdiv exact i64 %12, 32
  ret i64 %13
}

; Function Attrs: mustprogress nounwind uwtable
define linkonce_odr dso_local noundef zeroext i1 @_ZNKSt6vectorINSt7__cxx1112basic_stringIcSt11char_traitsIcESaIcEEESaIS5_EE5emptyEv(ptr noundef nonnull align 8 dereferenceable(24) %0) #5 comdat align 2 {
  %2 = alloca ptr, align 8
  %3 = alloca %"class.__gnu_cxx::__normal_iterator", align 8
  %4 = alloca %"class.__gnu_cxx::__normal_iterator", align 8
  store ptr %0, ptr %2, align 8
  %5 = load ptr, ptr %2, align 8
  %6 = call ptr @_ZNKSt6vectorINSt7__cxx1112basic_stringIcSt11char_traitsIcESaIcEEESaIS5_EE5beginEv(ptr noundef nonnull align 8 dereferenceable(24) %5) #3
  %7 = getelementptr inbounds %"class.__gnu_cxx::__normal_iterator", ptr %3, i32 0, i32 0
  store ptr %6, ptr %7, align 8
  %8 = call ptr @_ZNKSt6vectorINSt7__cxx1112basic_stringIcSt11char_traitsIcESaIcEEESaIS5_EE3endEv(ptr noundef nonnull align 8 dereferenceable(24) %5) #3
  %9 = getelementptr inbounds %"class.__gnu_cxx::__normal_iterator", ptr %4, i32 0, i32 0
  store ptr %8, ptr %9, align 8
  %10 = call noundef zeroext i1 @_ZN9__gnu_cxxeqIPKNSt7__cxx1112basic_stringIcSt11char_traitsIcESaIcEEESt6vectorIS6_SaIS6_EEEEbRKNS_17__normal_iteratorIT_T0_EESH_(ptr noundef nonnull align 8 dereferenceable(8) %3, ptr noundef nonnull align 8 dereferenceable(8) %4) #3
  ret i1 %10
}

; Function Attrs: mustprogress uwtable
define dso_local noundef i64 @_ZNK6cmList18ComputeInsertIndexElb(ptr noundef nonnull align 8 dereferenceable(24) %0, i64 noundef %1, i1 noundef zeroext %2) #4 align 2 personality ptr @__gxx_personality_v0 {
  %4 = alloca i64, align 8
  %5 = alloca ptr, align 8
  %6 = alloca i64, align 8
  %7 = alloca i8, align 1
  %8 = alloca %"class.std::__cxx11::basic_string", align 8
  %9 = alloca ptr, align 8
  %10 = alloca i32, align 4
  %11 = alloca i1, align 1
  %12 = alloca i64, align 8
  %13 = alloca i64, align 8
  %14 = alloca %"class.std::__cxx11::basic_string", align 8
  %15 = alloca i64, align 8
  %16 = alloca i64, align 8
  %17 = alloca i1, align 1
  store ptr %0, ptr %5, align 8
  store i64 %1, ptr %6, align 8
  %18 = zext i1 %2 to i8
  store i8 %18, ptr %7, align 1
  %19 = load ptr, ptr %5, align 8
  %20 = load i8, ptr %7, align 1
  %21 = trunc i8 %20 to i1
  br i1 %21, label %22, label %87

22:                                               ; preds = %3
  %23 = getelementptr inbounds %class.cmList, ptr %19, i32 0, i32 0
  %24 = call noundef zeroext i1 @_ZNKSt6vectorINSt7__cxx1112basic_stringIcSt11char_traitsIcESaIcEEESaIS5_EE5emptyEv(ptr noundef nonnull align 8 dereferenceable(24) %23) #3
  br i1 %24, label %25, label %44

25:                                               ; preds = %22
  %26 = load i64, ptr %6, align 8
  %27 = icmp ne i64 %26, 0
  br i1 %27, label %28, label %44

28:                                               ; preds = %25
  store i1 true, ptr %11, align 1
  %29 = call ptr @__cxa_allocate_exception(i64 16) #3
  invoke void @_Z8cmStrCatIRA8_KcRlJRA21_S0_EENSt7__cxx1112basic_stringIcSt11char_traitsIcESaIcEEEOT_OT0_DpOT1_(ptr dead_on_unwind writable sret(%"class.std::__cxx11::basic_string") align 8 %8, ptr noundef nonnull align 1 dereferenceable(8) @.str.9, ptr noundef nonnull align 8 dereferenceable(8) %6, ptr noundef nonnull align 1 dereferenceable(21) @.str.10)
          to label %30 unwind label %32

30:                                               ; preds = %28
  invoke void @_ZNSt12out_of_rangeC1ERKNSt7__cxx1112basic_stringIcSt11char_traitsIcESaIcEEE(ptr noundef nonnull align 8 dereferenceable(16) %29, ptr noundef nonnull align 8 dereferenceable(32) %8)
          to label %31 unwind label %36

31:                                               ; preds = %30
  store i1 false, ptr %11, align 1
  invoke void @__cxa_throw(ptr %29, ptr @_ZTISt12out_of_range, ptr @_ZNSt12out_of_rangeD1Ev) #16
          to label %106 unwind label %36

32:                                               ; preds = %28
  %33 = landingpad { ptr, i32 }
          cleanup
  %34 = extractvalue { ptr, i32 } %33, 0
  store ptr %34, ptr %9, align 8
  %35 = extractvalue { ptr, i32 } %33, 1
  store i32 %35, ptr %10, align 4
  br label %40

36:                                               ; preds = %31, %30
  %37 = landingpad { ptr, i32 }
          cleanup
  %38 = extractvalue { ptr, i32 } %37, 0
  store ptr %38, ptr %9, align 8
  %39 = extractvalue { ptr, i32 } %37, 1
  store i32 %39, ptr %10, align 4
  call void @_ZNSt7__cxx1112basic_stringIcSt11char_traitsIcESaIcEED1Ev(ptr noundef nonnull align 8 dereferenceable(32) %8) #3
  br label %40

40:                                               ; preds = %36, %32
  %41 = load i1, ptr %11, align 1
  br i1 %41, label %42, label %43

42:                                               ; preds = %40
  call void @__cxa_free_exception(ptr %29) #3
  br label %43

43:                                               ; preds = %42, %40
  br label %101

44:                                               ; preds = %25, %22
  %45 = load i64, ptr %6, align 8
  store i64 %45, ptr %12, align 8
  %46 = getelementptr inbounds %class.cmList, ptr %19, i32 0, i32 0
  %47 = call noundef zeroext i1 @_ZNKSt6vectorINSt7__cxx1112basic_stringIcSt11char_traitsIcESaIcEEESaIS5_EE5emptyEv(ptr noundef nonnull align 8 dereferenceable(24) %46) #3
  br i1 %47, label %85, label %48

48:                                               ; preds = %44
  %49 = getelementptr inbounds %class.cmList, ptr %19, i32 0, i32 0
  %50 = call noundef i64 @_ZNKSt6vectorINSt7__cxx1112basic_stringIcSt11char_traitsIcESaIcEEESaIS5_EE4sizeEv(ptr noundef nonnull align 8 dereferenceable(24) %49) #3
  store i64 %50, ptr %13, align 8
  %51 = load i64, ptr %12, align 8
  %52 = icmp slt i64 %51, 0
  br i1 %52, label %53, label %57

53:                                               ; preds = %48
  %54 = load i64, ptr %13, align 8
  %55 = load i64, ptr %12, align 8
  %56 = add nsw i64 %54, %55
  store i64 %56, ptr %12, align 8
  br label %57

57:                                               ; preds = %53, %48
  %58 = load i64, ptr %12, align 8
  %59 = icmp slt i64 %58, 0
  br i1 %59, label %64, label %60

60:                                               ; preds = %57
  %61 = load i64, ptr %13, align 8
  %62 = load i64, ptr %12, align 8
  %63 = icmp ult i64 %61, %62
  br i1 %63, label %64, label %84

64:                                               ; preds = %60, %57
  store i1 true, ptr %17, align 1
  %65 = call ptr @__cxa_allocate_exception(i64 16) #3
  %66 = getelementptr inbounds %class.cmList, ptr %19, i32 0, i32 0
  %67 = call noundef i64 @_ZNKSt6vectorINSt7__cxx1112basic_stringIcSt11char_traitsIcESaIcEEESaIS5_EE4sizeEv(ptr noundef nonnull align 8 dereferenceable(24) %66) #3
  store i64 %67, ptr %15, align 8
  %68 = getelementptr inbounds %class.cmList, ptr %19, i32 0, i32 0
  %69 = call noundef i64 @_ZNKSt6vectorINSt7__cxx1112basic_stringIcSt11char_traitsIcESaIcEEESaIS5_EE4sizeEv(ptr noundef nonnull align 8 dereferenceable(24) %68) #3
  store i64 %69, ptr %16, align 8
  invoke void @_Z8cmStrCatIRA8_KcRlJRA17_S0_mRA3_S0_mRA2_S0_EENSt7__cxx1112basic_stringIcSt11char_traitsIcESaIcEEEOT_OT0_DpOT1_(ptr dead_on_unwind writable sret(%"class.std::__cxx11::basic_string") align 8 %14, ptr noundef nonnull align 1 dereferenceable(8) @.str.9, ptr noundef nonnull align 8 dereferenceable(8) %6, ptr noundef nonnull align 1 dereferenceable(17) @.str.11, ptr noundef nonnull align 8 dereferenceable(8) %15, ptr noundef nonnull align 1 dereferenceable(3) @.str.12, ptr noundef nonnull align 8 dereferenceable(8) %16, ptr noundef nonnull align 1 dereferenceable(2) @.str.13)
          to label %70 unwind label %72

70:                                               ; preds = %64
  invoke void @_ZNSt12out_of_rangeC1ERKNSt7__cxx1112basic_stringIcSt11char_traitsIcESaIcEEE(ptr noundef nonnull align 8 dereferenceable(16) %65, ptr noundef nonnull align 8 dereferenceable(32) %14)
          to label %71 unwind label %76

71:                                               ; preds = %70
  store i1 false, ptr %17, align 1
  invoke void @__cxa_throw(ptr %65, ptr @_ZTISt12out_of_range, ptr @_ZNSt12out_of_rangeD1Ev) #16
          to label %106 unwind label %76

72:                                               ; preds = %64
  %73 = landingpad { ptr, i32 }
          cleanup
  %74 = extractvalue { ptr, i32 } %73, 0
  store ptr %74, ptr %9, align 8
  %75 = extractvalue { ptr, i32 } %73, 1
  store i32 %75, ptr %10, align 4
  br label %80

76:                                               ; preds = %71, %70
  %77 = landingpad { ptr, i32 }
          cleanup
  %78 = extractvalue { ptr, i32 } %77, 0
  store ptr %78, ptr %9, align 8
  %79 = extractvalue { ptr, i32 } %77, 1
  store i32 %79, ptr %10, align 4
  call void @_ZNSt7__cxx1112basic_stringIcSt11char_traitsIcESaIcEED1Ev(ptr noundef nonnull align 8 dereferenceable(32) %14) #3
  br label %80

80:                                               ; preds = %76, %72
  %81 = load i1, ptr %17, align 1
  br i1 %81, label %82, label %83

82:                                               ; preds = %80
  call void @__cxa_free_exception(ptr %65) #3
  br label %83

83:                                               ; preds = %82, %80
  br label %101

84:                                               ; preds = %60
  br label %85

85:                                               ; preds = %84, %44
  %86 = load i64, ptr %12, align 8
  store i64 %86, ptr %4, align 8
  br label %99

87:                                               ; preds = %3
  %88 = load i64, ptr %6, align 8
  %89 = icmp slt i64 %88, 0
  br i1 %89, label %90, label %95

90:                                               ; preds = %87
  %91 = getelementptr inbounds %class.cmList, ptr %19, i32 0, i32 0
  %92 = call noundef i64 @_ZNKSt6vectorINSt7__cxx1112basic_stringIcSt11char_traitsIcESaIcEEESaIS5_EE4sizeEv(ptr noundef nonnull align 8 dereferenceable(24) %91) #3
  %93 = load i64, ptr %6, align 8
  %94 = add i64 %92, %93
  br label %97

95:                                               ; preds = %87
  %96 = load i64, ptr %6, align 8
  br label %97

97:                                               ; preds = %95, %90
  %98 = phi i64 [ %94, %90 ], [ %96, %95 ]
  store i64 %98, ptr %4, align 8
  br label %99

99:                                               ; preds = %97, %85
  %100 = load i64, ptr %4, align 8
  ret i64 %100

101:                                              ; preds = %83, %43
  %102 = load ptr, ptr %9, align 8
  %103 = load i32, ptr %10, align 4
  %104 = insertvalue { ptr, i32 } poison, ptr %102, 0
  %105 = insertvalue { ptr, i32 } %104, i32 %103, 1
  resume { ptr, i32 } %105

106:                                              ; preds = %71, %31
  unreachable
}