; Function Attrs: mustprogress uwtable
define dso_local noundef i64 @_ZNK6cmList18ComputeInsertIndexElb(ptr nocapture noundef nonnull readonly align 8 dereferenceable(24) %0, i64 noundef %1, i1 noundef zeroext %2) local_unnamed_addr #3 align 2 personality ptr @__gxx_personality_v0 {
  %4 = alloca i64, align 8
  %5 = alloca %"class.std::__cxx11::basic_string", align 8
  %6 = alloca %"class.std::__cxx11::basic_string", align 8
  %7 = alloca i64, align 8
  %8 = alloca i64, align 8
  store i64 %1, ptr %4, align 8
  br i1 %2, label %9, label %49

9:                                                ; preds = %3
  %10 = load ptr, ptr %0, align 8
  %11 = getelementptr inbounds i8, ptr %0, i64 8
  %12 = load ptr, ptr %11, align 8
  %13 = icmp eq ptr %10, %12
  %14 = icmp ne i64 %1, 0
  %or.cond = and i1 %14, %13
  br i1 %or.cond, label %15, label %24

15:                                               ; preds = %9
  %16 = tail call ptr @__cxa_allocate_exception(i64 16) #27
  invoke void @_Z8cmStrCatIRA8_KcRlJRA21_S0_EENSt7__cxx1112basic_stringIcSt11char_traitsIcESaIcEEEOT_OT0_DpOT1_(ptr dead_on_unwind nonnull writable sret(%"class.std::__cxx11::basic_string") align 8 %5, ptr noundef nonnull align 1 dereferenceable(8) @.str.9, ptr noundef nonnull align 8 dereferenceable(8) %4, ptr noundef nonnull align 1 dereferenceable(21) @.str.10)
          to label %17 unwind label %.thread

17:                                               ; preds = %15
  invoke void @_ZNSt12out_of_rangeC1ERKNSt7__cxx1112basic_stringIcSt11char_traitsIcESaIcEEE(ptr noundef nonnull align 8 dereferenceable(16) %16, ptr noundef nonnull align 8 dereferenceable(32) %5)
          to label %19 unwind label %.thread35

.thread35:                                        ; preds = %17
  %18 = landingpad { ptr, i32 }
          cleanup
  call void @_ZNSt7__cxx1112basic_stringIcSt11char_traitsIcESaIcEED1Ev(ptr noundef nonnull align 8 dereferenceable(32) %5) #27
  br label %23

19:                                               ; preds = %17
  invoke void @__cxa_throw(ptr nonnull %16, ptr nonnull @_ZTISt12out_of_range, ptr nonnull @_ZNSt12out_of_rangeD1Ev) #28
          to label %62 unwind label %21

.thread:                                          ; preds = %15
  %20 = landingpad { ptr, i32 }
          cleanup
  br label %23

21:                                               ; preds = %19
  %22 = landingpad { ptr, i32 }
          cleanup
  call void @_ZNSt7__cxx1112basic_stringIcSt11char_traitsIcESaIcEED1Ev(ptr noundef nonnull align 8 dereferenceable(32) %5) #27
  br label %61

23:                                               ; preds = %.thread35, %.thread
  %.pn2834 = phi { ptr, i32 } [ %20, %.thread ], [ %18, %.thread35 ]
  call void @__cxa_free_exception(ptr %16) #27
  br label %61

24:                                               ; preds = %9
  br i1 %13, label %60, label %25

25:                                               ; preds = %24
  %26 = ptrtoint ptr %12 to i64
  %27 = ptrtoint ptr %10 to i64
  %28 = sub i64 %26, %27
  %29 = ashr exact i64 %28, 5
  %30 = icmp slt i64 %1, 0
  %31 = select i1 %30, i64 %29, i64 0
  %spec.select = add nsw i64 %31, %1
  %32 = icmp slt i64 %spec.select, 0
  %33 = icmp ult i64 %29, %spec.select
  %or.cond31 = or i1 %32, %33
  br i1 %or.cond31, label %34, label %60

34:                                               ; preds = %25
  %35 = tail call ptr @__cxa_allocate_exception(i64 16) #27
  %36 = load ptr, ptr %11, align 8
  %37 = load ptr, ptr %0, align 8
  %38 = ptrtoint ptr %36 to i64
  %39 = ptrtoint ptr %37 to i64
  %40 = sub i64 %38, %39
  %41 = ashr exact i64 %40, 5
  store i64 %41, ptr %7, align 8
  store i64 %41, ptr %8, align 8
  invoke void @_Z8cmStrCatIRA8_KcRlJRA17_S0_mRA3_S0_mRA2_S0_EENSt7__cxx1112basic_stringIcSt11char_traitsIcESaIcEEEOT_OT0_DpOT1_(ptr dead_on_unwind nonnull writable sret(%"class.std::__cxx11::basic_string") align 8 %6, ptr noundef nonnull align 1 dereferenceable(8) @.str.9, ptr noundef nonnull align 8 dereferenceable(8) %4, ptr noundef nonnull align 1 dereferenceable(17) @.str.11, ptr noundef nonnull align 8 dereferenceable(8) %7, ptr noundef nonnull align 1 dereferenceable(3) @.str.12, ptr noundef nonnull align 8 dereferenceable(8) %8, ptr noundef nonnull align 1 dereferenceable(2) @.str.13)
          to label %42 unwind label %.thread37

42:                                               ; preds = %34
  invoke void @_ZNSt12out_of_rangeC1ERKNSt7__cxx1112basic_stringIcSt11char_traitsIcESaIcEEE(ptr noundef nonnull align 8 dereferenceable(16) %35, ptr noundef nonnull align 8 dereferenceable(32) %6)
          to label %44 unwind label %.thread41

.thread41:                                        ; preds = %42
  %43 = landingpad { ptr, i32 }
          cleanup
  call void @_ZNSt7__cxx1112basic_stringIcSt11char_traitsIcESaIcEED1Ev(ptr noundef nonnull align 8 dereferenceable(32) %6) #27
  br label %48

44:                                               ; preds = %42
  invoke void @__cxa_throw(ptr nonnull %35, ptr nonnull @_ZTISt12out_of_range, ptr nonnull @_ZNSt12out_of_rangeD1Ev) #28
          to label %62 unwind label %46

.thread37:                                        ; preds = %34
  %45 = landingpad { ptr, i32 }
          cleanup
  br label %48

46:                                               ; preds = %44
  %47 = landingpad { ptr, i32 }
          cleanup
  call void @_ZNSt7__cxx1112basic_stringIcSt11char_traitsIcESaIcEED1Ev(ptr noundef nonnull align 8 dereferenceable(32) %6) #27
  br label %61

48:                                               ; preds = %.thread41, %.thread37
  %.pn40 = phi { ptr, i32 } [ %45, %.thread37 ], [ %43, %.thread41 ]
  call void @__cxa_free_exception(ptr %35) #27
  br label %61

49:                                               ; preds = %3
  %50 = icmp slt i64 %1, 0
  br i1 %50, label %51, label %60

51:                                               ; preds = %49
  %52 = getelementptr inbounds i8, ptr %0, i64 8
  %53 = load ptr, ptr %52, align 8
  %54 = load ptr, ptr %0, align 8
  %55 = ptrtoint ptr %53 to i64
  %56 = ptrtoint ptr %54 to i64
  %57 = sub i64 %55, %56
  %58 = ashr exact i64 %57, 5
  %59 = add i64 %58, %1
  br label %60

60:                                               ; preds = %51, %49, %24, %25
  %.014 = phi i64 [ %1, %24 ], [ %spec.select, %25 ], [ %59, %51 ], [ %1, %49 ]
  ret i64 %.014

61:                                               ; preds = %46, %21, %48, %23
  %.pn28.pn = phi { ptr, i32 } [ %.pn2834, %23 ], [ %22, %21 ], [ %.pn40, %48 ], [ %47, %46 ]
  resume { ptr, i32 } %.pn28.pn

62:                                               ; preds = %44, %19
  unreachable
}